; Function Attrs: nounwind uwtable
define internal zeroext i1 @tts_heap_is_current_xact_tuple(ptr noundef readonly captures(none) %0) #1 {
  %2 = getelementptr inbounds nuw i8, ptr %0, i64 64
  %3 = load ptr, ptr %2, align 8
  %.not = icmp eq ptr %3, null
  br i1 %.not, label %4, label %8

4:                                                ; preds = %1
  %5 = tail call zeroext i1 @errstart_cold(i32 noundef 21, ptr noundef null) #15
  tail call void @llvm.assume(i1 %5)
  %6 = tail call i32 @errcode(i32 noundef 1088) #14
  %7 = tail call i32 (ptr, ...) @errmsg(ptr noundef nonnull @.str.10) #14
  tail call void @errfinish(ptr noundef nonnull @.str.1, i32 noundef 390, ptr noundef nonnull @__func__.tts_heap_is_current_xact_tuple) #14
  unreachable

8:                                                ; preds = %1
  %9 = getelementptr inbounds nuw i8, ptr %3, i64 16
  %10 = load ptr, ptr %9, align 8
  %.val = load i32, ptr %10, align 4
  %11 = tail call zeroext i1 @TransactionIdIsCurrentTransactionId(i32 noundef %.val) #14
  ret i1 %11
}